; ModuleID = 'source-C-CXX/14/1438.c'
source_filename = "source-C-CXX/14/1438.c"
target datalayout = "e-m:e-p270:32:32-p271:32:32-p272:64:64-i64:64-f80:128-n8:16:32:64-S128"
target triple = "x86_64-pc-linux-gnu"

@.str = private unnamed_addr constant [3 x i8] c"%d\00", align 1

; Function Attrs: nofree nounwind sspstrong uwtable
define dso_local i32 @main() local_unnamed_addr #0 {
  %1 = alloca i32, align 4
  %2 = alloca [100 x [100 x i32]], align 16
  %3 = bitcast i32* %1 to i8*
  call void @llvm.lifetime.start.p0i8(i64 4, i8* nonnull %3) #3
  %4 = bitcast [100 x [100 x i32]]* %2 to i8*
  call void @llvm.lifetime.start.p0i8(i64 40000, i8* nonnull %4) #3
  %5 = call i32 (i8*, ...) @__isoc99_scanf(i8* getelementptr inbounds ([3 x i8], [3 x i8]* @.str, i64 0, i64 0), i32* nonnull %1)
  %6 = load i32, i32* %1, align 4, !tbaa !5
  %7 = icmp slt i32 %6, 1
  br i1 %7, label %17, label %8

8:                                                ; preds = %0, %43
  %9 = phi i32 [ %44, %43 ], [ %6, %0 ]
  %10 = phi i64 [ %49, %43 ], [ 1, %0 ]
  %11 = phi i32 [ %47, %43 ], [ 1, %0 ]
  %12 = phi i32 [ %46, %43 ], [ undef, %0 ]
  %13 = phi i32 [ %45, %43 ], [ undef, %0 ]
  %14 = icmp slt i32 %9, 1
  br i1 %14, label %43, label %15

15:                                               ; preds = %8
  %16 = trunc i64 %10 to i32
  br label %24

17:                                               ; preds = %43, %0
  %18 = phi i32 [ undef, %0 ], [ %45, %43 ]
  %19 = phi i32 [ undef, %0 ], [ %46, %43 ]
  %20 = phi i32 [ %6, %0 ], [ %44, %43 ]
  %21 = sext i32 %19 to i64
  %22 = sext i32 %18 to i64
  %23 = sext i32 %20 to i64
  br label %51

24:                                               ; preds = %15, %24
  %25 = phi i64 [ 1, %15 ], [ %39, %24 ]
  %26 = phi i32 [ %11, %15 ], [ %38, %24 ]
  %27 = phi i32 [ %12, %15 ], [ %37, %24 ]
  %28 = phi i32 [ %13, %15 ], [ %36, %24 ]
  %29 = getelementptr inbounds [100 x [100 x i32]], [100 x [100 x i32]]* %2, i64 0, i64 %10, i64 %25
  %30 = call i32 (i8*, ...) @__isoc99_scanf(i8* getelementptr inbounds ([3 x i8], [3 x i8]* @.str, i64 0, i64 0), i32* nonnull %29)
  %31 = load i32, i32* %29, align 4, !tbaa !5
  %32 = icmp eq i32 %31, 0
  %33 = icmp ne i32 %26, 0
  %34 = select i1 %32, i1 %33, i1 false
  %35 = trunc i64 %25 to i32
  %36 = select i1 %34, i32 %35, i32 %28
  %37 = select i1 %34, i32 %16, i32 %27
  %38 = select i1 %34, i32 0, i32 %26
  %39 = add nuw nsw i64 %25, 1
  %40 = load i32, i32* %1, align 4, !tbaa !5
  %41 = sext i32 %40 to i64
  %42 = icmp slt i64 %25, %41
  br i1 %42, label %24, label %43, !llvm.loop !9

43:                                               ; preds = %24, %8
  %44 = phi i32 [ %9, %8 ], [ %40, %24 ]
  %45 = phi i32 [ %13, %8 ], [ %36, %24 ]
  %46 = phi i32 [ %12, %8 ], [ %37, %24 ]
  %47 = phi i32 [ %11, %8 ], [ %38, %24 ]
  %48 = sext i32 %44 to i64
  %49 = add nuw nsw i64 %10, 1
  %50 = icmp slt i64 %10, %48
  br i1 %50, label %8, label %17, !llvm.loop !11

51:                                               ; preds = %17, %51
  %52 = phi i64 [ %22, %17 ], [ %53, %51 ]
  %53 = add nsw i64 %52, 1
  %54 = getelementptr inbounds [100 x [100 x i32]], [100 x [100 x i32]]* %2, i64 0, i64 %21, i64 %53
  %55 = load i32, i32* %54, align 4, !tbaa !5
  %56 = icmp eq i32 %55, 0
  %57 = icmp slt i64 %52, %23
  %58 = select i1 %56, i1 %57, i1 false
  br i1 %58, label %51, label %59, !llvm.loop !13

59:                                               ; preds = %51
  %60 = shl i64 %52, 32
  %61 = ashr exact i64 %60, 32
  br label %62

62:                                               ; preds = %62, %59
  %63 = phi i64 [ %69, %62 ], [ %21, %59 ]
  %64 = getelementptr inbounds [100 x [100 x i32]], [100 x [100 x i32]]* %2, i64 0, i64 %63, i64 %61
  %65 = load i32, i32* %64, align 4, !tbaa !5
  %66 = icmp eq i32 %65, 0
  %67 = icmp sle i64 %63, %23
  %68 = select i1 %66, i1 %67, i1 false
  %69 = add i64 %63, 1
  br i1 %68, label %62, label %70, !llvm.loop !14

70:                                               ; preds = %62
  %71 = trunc i64 %52 to i32
  %72 = trunc i64 %63 to i32
  %73 = sub i32 -2, %19
  %74 = add i32 %73, %72
  %75 = xor i32 %18, -1
  %76 = add i32 %71, %75
  %77 = mul nsw i32 %74, %76
  %78 = call i32 (i8*, ...) @printf(i8* nonnull dereferenceable(1) getelementptr inbounds ([3 x i8], [3 x i8]* @.str, i64 0, i64 0), i32 %77)
  call void @llvm.lifetime.end.p0i8(i64 40000, i8* nonnull %4) #3
  call void @llvm.lifetime.end.p0i8(i64 4, i8* nonnull %3) #3
  ret i32 0
}

; Function Attrs: argmemonly mustprogress nofree nosync nounwind willreturn
declare void @llvm.lifetime.start.p0i8(i64 immarg, i8* nocapture) #1

; Function Attrs: nofree nounwind
declare noundef i32 @__isoc99_scanf(i8* nocapture noundef readonly, ...) local_unnamed_addr #2

; Function Attrs: nofree nounwind
declare noundef i32 @printf(i8* nocapture noundef readonly, ...) local_unnamed_addr #2

; Function Attrs: argmemonly mustprogress nofree nosync nounwind willreturn
declare void @llvm.lifetime.end.p0i8(i64 immarg, i8* nocapture) #1


!llvm.module.flags = !{!0, !1, !2, !3}
!llvm.ident = !{!4}

!0 = !{i32 1, !"wchar_size", i32 4}
!1 = !{i32 7, !"PIC Level", i32 2}
!2 = !{i32 7, !"PIE Level", i32 2}
!3 = !{i32 7, !"uwtable", i32 1}
!4 = !{!"clang version 13.0.0"}
!5 = !{!6, !6, i64 0}
!6 = !{!"int", !7, i64 0}
!7 = !{!"omnipotent char", !8, i64 0}
!8 = !{!"Simple C/C++ TBAA"}
!9 = distinct !{!9, !10}
!10 = !{!"llvm.loop.mustprogress"}
!11 = distinct !{!11, !10, !12}
!12 = !{!"llvm.loop.unswitch.partial.disable"}
!13 = distinct !{!13, !10}
!14 = distinct !{!14, !10}
